; Function Attrs: mustprogress uwtable
define void @_ZN32pxrInternal_v0_24__pxrReserved__10PcpNodeRef14SetHasSymmetryEb(ptr noundef nonnull readonly align 8 captures(none) dereferenceable(16) %0, i1 noundef zeroext %1) local_unnamed_addr #1 align 2 {
  %3 = load ptr, ptr %0, align 8
  %4 = getelementptr inbounds nuw i8, ptr %0, i64 8
  %5 = load i64, ptr %4, align 8
  %6 = getelementptr inbounds nuw i8, ptr %3, i64 16
  %7 = load ptr, ptr %6, align 8
  %8 = load ptr, ptr %7, align 8
  %9 = getelementptr inbounds %"struct.pxrInternal_v0_24__pxrReserved__::PcpPrimIndex_Graph::_Node", ptr %8, i64 %5, i32 4, i32 2
  %10 = load i32, ptr %9, align 4
  %11 = and i32 %10, 65536
  %12 = icmp eq i32 %11, 0
  %.not = xor i1 %1, %12
  br i1 %.not, label %20, label %13

13:                                               ; preds = %2
  %14 = tail call noundef nonnull align 8 dereferenceable(44) ptr @_ZN32pxrInternal_v0_24__pxrReserved__18PcpPrimIndex_Graph17_GetWriteableNodeEm(ptr noundef nonnull align 8 dereferenceable(57) %3, i64 noundef %5)
  %15 = getelementptr inbounds nuw i8, ptr %14, i64 40
  %16 = load i32, ptr %15, align 8
  %17 = select i1 %1, i32 65536, i32 0
  %18 = and i32 %16, -65537
  %19 = or disjoint i32 %18, %17
  store i32 %19, ptr %15, align 8
  br label %20

20:                                               ; preds = %13, %2
  ret void
}